target datalayout = "e-m:e-p270:32:32-p271:32:32-p272:64:64-i64:64-i128:128-f80:128-n8:16:32:64-S128"
target triple = "x86_64-pc-linux-gnu"

%class.QString = type { ptr }
%class.RichParameter = type { ptr, %class.QString, ptr, %class.QString, %class.QString, i8, i8, %class.QString }
%class.IntValue = type <{ %class.Value, i32, [4 x i8] }>
%class.Value = type { ptr }
%class.RichMesh = type { %class.RichParameter, ptr }

; Function Attrs: mustprogress nounwind uwtable
define linkonce_odr void @_ZN5ValueD2Ev(ptr noundef nonnull align 8 dereferenceable(8) %0) unnamed_addr #0 comdat align 2 {
  %2 = alloca ptr, align 8
  store ptr %0, ptr %2, align 8
  ret void
}

; Function Attrs: mustprogress nounwind uwtable
define linkonce_odr void @_ZN8IntValueD2Ev(ptr noundef nonnull align 8 dereferenceable(12) %0) unnamed_addr #0 comdat align 2 {
  %2 = alloca ptr, align 8
  store ptr %0, ptr %2, align 8
  %3 = load ptr, ptr %2, align 8
  call void @_ZN5ValueD2Ev(ptr noundef nonnull align 8 dereferenceable(8) %3) #5
  ret void
}

; Function Attrs: mustprogress uwtable
define void @_ZN8RichMeshC2ERK7QStringjPK12MeshDocumentS2_S2_bS2_(ptr noundef nonnull align 8 dereferenceable(64) %0, ptr noundef nonnull align 8 dereferenceable(8) %1, i32 noundef %2, ptr noundef %3, ptr noundef nonnull align 8 dereferenceable(8) %4, ptr noundef nonnull align 8 dereferenceable(8) %5, i1 noundef zeroext %6, ptr noundef nonnull align 8 dereferenceable(8) %7) unnamed_addr #2 align 2 personality ptr @__gxx_personality_v0 {
  %9 = alloca ptr, align 8
  %10 = alloca ptr, align 8
  %11 = alloca i32, align 4
  %12 = alloca ptr, align 8
  %13 = alloca ptr, align 8
  %14 = alloca ptr, align 8
  %15 = alloca i8, align 1
  %16 = alloca ptr, align 8
  %17 = alloca %class.IntValue, align 8
  %18 = alloca ptr, align 8
  %19 = alloca i32, align 4
  store ptr %0, ptr %9, align 8
  store ptr %1, ptr %10, align 8
  store i32 %2, ptr %11, align 4
  store ptr %3, ptr %12, align 8
  store ptr %4, ptr %13, align 8
  store ptr %5, ptr %14, align 8
  %20 = zext i1 %6 to i8
  store i8 %20, ptr %15, align 1
  store ptr %7, ptr %16, align 8
  %21 = load ptr, ptr %9, align 8
  %22 = load ptr, ptr %10, align 8
  %23 = load i32, ptr %11, align 4
  call void @_ZN8IntValueC1Ei(ptr noundef nonnull align 8 dereferenceable(12) %17, i32 noundef %23)
  %24 = load ptr, ptr %13, align 8
  %25 = load ptr, ptr %14, align 8
  %26 = load i8, ptr %15, align 1
  %27 = trunc i8 %26 to i1
  %28 = load ptr, ptr %16, align 8
  invoke void @_ZN13RichParameterC2ERK7QStringRK5ValueS2_S2_bS2_(ptr noundef nonnull align 8 dereferenceable(56) %21, ptr noundef nonnull align 8 dereferenceable(8) %22, ptr noundef nonnull align 8 dereferenceable(8) %17, ptr noundef nonnull align 8 dereferenceable(8) %24, ptr noundef nonnull align 8 dereferenceable(8) %25, i1 noundef zeroext %27, ptr noundef nonnull align 8 dereferenceable(8) %28)
          to label %29 unwind label %32

29:                                               ; preds = %8
  call void @_ZN8IntValueD2Ev(ptr noundef nonnull align 8 dereferenceable(12) %17) #5
  store ptr getelementptr inbounds ({ [8 x ptr] }, ptr @_ZTV8RichMesh, i32 0, i32 0, i32 2), ptr %21, align 8
  %30 = getelementptr inbounds %class.RichMesh, ptr %21, i32 0, i32 1
  %31 = load ptr, ptr %12, align 8
  store ptr %31, ptr %30, align 8
  ret void

32:                                               ; preds = %8
  %33 = landingpad { ptr, i32 }
          cleanup
  %34 = extractvalue { ptr, i32 } %33, 0
  store ptr %34, ptr %18, align 8
  %35 = extractvalue { ptr, i32 } %33, 1
  store i32 %35, ptr %19, align 4
  call void @_ZN8IntValueD2Ev(ptr noundef nonnull align 8 dereferenceable(12) %17) #5
  br label %36

36:                                               ; preds = %32
  %37 = load ptr, ptr %18, align 8
  %38 = load i32, ptr %19, align 4
  %39 = insertvalue { ptr, i32 } poison, ptr %37, 0
  %40 = insertvalue { ptr, i32 } %39, i32 %38, 1
  resume { ptr, i32 } %40
}