; Function Attrs: mustprogress uwtable
define void @_ZN8RichMeshC2ERK7QStringjPK12MeshDocumentS2_S2_bS2_(ptr noundef nonnull align 8 dereferenceable(64) %0, ptr noundef nonnull align 8 dereferenceable(8) %1, i32 noundef %2, ptr noundef %3, ptr noundef nonnull align 8 dereferenceable(8) %4, ptr noundef nonnull align 8 dereferenceable(8) %5, i1 noundef zeroext %6, ptr noundef nonnull align 8 dereferenceable(8) %7) unnamed_addr #2 align 2 personality ptr @__gxx_personality_v0 {
  %9 = alloca %class.IntValue, align 8
  call void @_ZN8IntValueC1Ei(ptr noundef nonnull align 8 dereferenceable(12) %9, i32 noundef %2)
  call void @_ZN13RichParameterC2ERK7QStringRK5ValueS2_S2_bS2_(ptr noundef nonnull align 8 dereferenceable(56) %0, ptr noundef nonnull align 8 dereferenceable(8) %1, ptr noundef nonnull align 8 dereferenceable(8) %9, ptr noundef nonnull align 8 dereferenceable(8) %4, ptr noundef nonnull align 8 dereferenceable(8) %5, i1 noundef zeroext %6, ptr noundef nonnull align 8 dereferenceable(8) %7)
  store ptr getelementptr inbounds ({ [8 x ptr] }, ptr @_ZTV8RichMesh, i64 0, i32 0, i64 2), ptr %0, align 8
  %10 = getelementptr inbounds i8, ptr %0, i64 56
  store ptr %3, ptr %10, align 8
  ret void
}